target datalayout = "e-m:e-p270:32:32-p271:32:32-p272:64:64-i64:64-i128:128-f80:128-n8:16:32:64-S128"
target triple = "x86_64-pc-linux-gnu"

%struct.H5FA_hdr_t = type { %struct.H5C_cache_entry_t, %struct.H5FA_create_t, i64, %struct.H5FA_stat_t, i64, i64, i64, ptr, i64, i8, i64, i64, ptr, i8, ptr, ptr }
%struct.H5C_cache_entry_t = type { ptr, i64, i64, ptr, i8, ptr, i8, i8, i8, i8, i32, i8, i8, i8, i8, i8, i32, ptr, i32, i32, i32, i32, i32, i8, i8, ptr, ptr, ptr, ptr, ptr, ptr, i8, i32, i8, i64, ptr, i64, i64, i32, i8, i32, i32, i8, ptr, ptr, ptr }
%struct.H5FA_create_t = type { ptr, i8, i8, i64 }
%struct.H5FA_stat_t = type { i64, i64, i64 }
%struct.H5FA_t = type { ptr, ptr }

@H5FA_init_g = global i8 0, align 1
@H5_libterm_g = external global i8, align 1
@.str.1 = private unnamed_addr constant [98 x i8] c"generated/home/dtcxzyw/WorkSpace/Projects/compilers/llvm-opt-benchmark/bench/hdf5/hdf5/src/H5FA.c\00", align 1
@H5E_FARRAY_g = external global i64, align 8
@__func__.H5FA_close = private unnamed_addr constant [11 x i8] c"H5FA_close\00", align 1
@H5E_CANTLOAD_g = external global i64, align 8
@.str.13 = private unnamed_addr constant [34 x i8] c"unable to load fixed array header\00", align 1
@H5E_CANTDEC_g = external global i64, align 8
@.str.14 = private unnamed_addr constant [55 x i8] c"can't decrement reference count on shared array header\00", align 1
@H5E_CANTDELETE_g = external global i64, align 8
@.str.15 = private unnamed_addr constant [29 x i8] c"unable to delete fixed array\00", align 1
@H5_H5FA_t_reg_free_list = internal global { i8, [3 x i8], i32, i32, [4 x i8], ptr, i64, ptr } { i8 0, [3 x i8] zeroinitializer, i32 0, i32 0, [4 x i8] zeroinitializer, ptr @.str.25, i64 16, ptr null }, align 8

; Function Attrs: nounwind uwtable
define i32 @H5FA_close(ptr noundef %0) #0 {
  %2 = alloca i32, align 4
  %3 = alloca ptr, align 8
  %4 = alloca i8, align 1
  %5 = alloca i64, align 8
  %6 = alloca i32, align 4
  %7 = alloca i8, align 1
  %8 = alloca ptr, align 8
  %9 = alloca i32, align 4
  store ptr %0, ptr %3, align 8, !tbaa !11
  call void @llvm.lifetime.start.p0(i64 1, ptr %4) #6
  store i8 0, ptr %4, align 1, !tbaa !13
  call void @llvm.lifetime.start.p0(i64 8, ptr %5) #6
  store i64 -1, ptr %5, align 8, !tbaa !17
  call void @llvm.lifetime.start.p0(i64 4, ptr %6) #6
  store i32 0, ptr %6, align 4, !tbaa !38
  call void @llvm.lifetime.start.p0(i64 1, ptr %7) #6
  store i8 0, ptr %7, align 1, !tbaa !13
  %10 = load i8, ptr @H5FA_init_g, align 1, !tbaa !13, !range !15, !noundef !16
  %11 = trunc i8 %10 to i1
  br i1 %11, label %16, label %12

12:                                               ; preds = %1
  %13 = load i8, ptr @H5_libterm_g, align 1, !tbaa !13, !range !15, !noundef !16
  %14 = trunc i8 %13 to i1
  %15 = xor i1 %14, true
  br label %16

16:                                               ; preds = %12, %1
  %17 = phi i1 [ false, %1 ], [ %15, %12 ]
  %18 = xor i1 %17, true
  %19 = xor i1 %18, true
  %20 = zext i1 %19 to i32
  %21 = sext i32 %20 to i64
  %22 = call i64 @llvm.expect.i64(i64 %21, i64 0)
  %23 = icmp ne i64 %22, 0
  br i1 %23, label %24, label %25

24:                                               ; preds = %16
  store i8 1, ptr @H5FA_init_g, align 1, !tbaa !13
  br label %25

25:                                               ; preds = %24, %16
  %26 = load i8, ptr @H5FA_init_g, align 1, !tbaa !13, !range !15, !noundef !16
  %27 = trunc i8 %26 to i1
  br i1 %27, label %32, label %28

28:                                               ; preds = %25
  %29 = load i8, ptr @H5_libterm_g, align 1, !tbaa !13, !range !15, !noundef !16
  %30 = trunc i8 %29 to i1
  %31 = xor i1 %30, true
  br label %32

32:                                               ; preds = %28, %25
  %33 = phi i1 [ true, %25 ], [ %31, %28 ]
  %34 = xor i1 %33, true
  %35 = xor i1 %34, true
  %36 = zext i1 %35 to i32
  %37 = sext i32 %36 to i64
  %38 = call i64 @llvm.expect.i64(i64 %37, i64 1)
  %39 = icmp ne i64 %38, 0
  br i1 %39, label %40, label %189

40:                                               ; preds = %32
  %41 = load ptr, ptr %3, align 8, !tbaa !11
  %42 = getelementptr inbounds nuw %struct.H5FA_t, ptr %41, i32 0, i32 0
  %43 = load ptr, ptr %42, align 8, !tbaa !35
  %44 = icmp ne ptr %43, null
  br i1 %44, label %45, label %185

45:                                               ; preds = %40
  %46 = load ptr, ptr %3, align 8, !tbaa !11
  %47 = getelementptr inbounds nuw %struct.H5FA_t, ptr %46, i32 0, i32 0
  %48 = load ptr, ptr %47, align 8, !tbaa !35
  %49 = call i64 @H5FA__hdr_fuse_decr(ptr noundef %48)
  %50 = icmp eq i64 0, %49
  br i1 %50, label %51, label %72

51:                                               ; preds = %45
  %52 = load ptr, ptr %3, align 8, !tbaa !11
  %53 = getelementptr inbounds nuw %struct.H5FA_t, ptr %52, i32 0, i32 1
  %54 = load ptr, ptr %53, align 8, !tbaa !37
  %55 = load ptr, ptr %3, align 8, !tbaa !11
  %56 = getelementptr inbounds nuw %struct.H5FA_t, ptr %55, i32 0, i32 0
  %57 = load ptr, ptr %56, align 8, !tbaa !35
  %58 = getelementptr inbounds nuw %struct.H5FA_hdr_t, ptr %57, i32 0, i32 7
  store ptr %54, ptr %58, align 8, !tbaa !39
  %59 = load ptr, ptr %3, align 8, !tbaa !11
  %60 = getelementptr inbounds nuw %struct.H5FA_t, ptr %59, i32 0, i32 0
  %61 = load ptr, ptr %60, align 8, !tbaa !35
  %62 = getelementptr inbounds nuw %struct.H5FA_hdr_t, ptr %61, i32 0, i32 9
  %63 = load i8, ptr %62, align 8, !tbaa !21, !range !15, !noundef !16
  %64 = trunc i8 %63 to i1
  br i1 %64, label %65, label %71

65:                                               ; preds = %51
  store i8 1, ptr %4, align 1, !tbaa !13
  %66 = load ptr, ptr %3, align 8, !tbaa !11
  %67 = getelementptr inbounds nuw %struct.H5FA_t, ptr %66, i32 0, i32 0
  %68 = load ptr, ptr %67, align 8, !tbaa !35
  %69 = getelementptr inbounds nuw %struct.H5FA_hdr_t, ptr %68, i32 0, i32 5
  %70 = load i64, ptr %69, align 8, !tbaa !40
  store i64 %70, ptr %5, align 8, !tbaa !17
  br label %71

71:                                               ; preds = %65, %51
  br label %72

72:                                               ; preds = %71, %45
  %73 = load i8, ptr %4, align 1, !tbaa !13, !range !15, !noundef !16
  %74 = trunc i8 %73 to i1
  br i1 %74, label %75, label %158

75:                                               ; preds = %72
  call void @llvm.lifetime.start.p0(i64 8, ptr %8) #6
  %76 = load ptr, ptr %3, align 8, !tbaa !11
  %77 = getelementptr inbounds nuw %struct.H5FA_t, ptr %76, i32 0, i32 1
  %78 = load ptr, ptr %77, align 8, !tbaa !37
  %79 = load i64, ptr %5, align 8, !tbaa !17
  %80 = call ptr @H5FA__hdr_protect(ptr noundef %78, i64 noundef %79, ptr noundef null, i32 noundef 0)
  store ptr %80, ptr %8, align 8, !tbaa !19
  %81 = icmp eq ptr null, %80
  br i1 %81, label %82, label %101

82:                                               ; preds = %75
  br label %83

83:                                               ; preds = %82
  br label %84

84:                                               ; preds = %83
  br label %85

85:                                               ; preds = %84
  %86 = load i64, ptr @H5E_FARRAY_g, align 8, !tbaa !17
  %87 = load i64, ptr @H5E_CANTLOAD_g, align 8, !tbaa !17
  %88 = call i32 (ptr, ptr, i32, i64, i64, ptr, ...) @H5E_printf_stack(ptr noundef @.str.1, ptr noundef @__func__.H5FA_close, i32 noundef 563, i64 noundef %86, i64 noundef %87, ptr noundef @.str.13)
  br label %89

89:                                               ; preds = %85
  br label %90

90:                                               ; preds = %89
  store i8 1, ptr %7, align 1, !tbaa !13
  %91 = load i8, ptr %7, align 1, !tbaa !13, !range !15, !noundef !16
  %92 = trunc i8 %91 to i1
  %93 = zext i1 %92 to i8
  store i8 %93, ptr %7, align 1, !tbaa !13
  br label %94

94:                                               ; preds = %90
  br label %95

95:                                               ; preds = %94
  br label %96

96:                                               ; preds = %95
  store i32 -1, ptr %6, align 4, !tbaa !38
  store i32 10, ptr %9, align 4
  br label %155

97:                                               ; No predecessors!
  br label %98

98:                                               ; preds = %97
  br label %99

99:                                               ; preds = %98
  br label %100

100:                                              ; preds = %99
  br label %101

101:                                              ; preds = %100, %75
  %102 = load ptr, ptr %3, align 8, !tbaa !11
  %103 = getelementptr inbounds nuw %struct.H5FA_t, ptr %102, i32 0, i32 1
  %104 = load ptr, ptr %103, align 8, !tbaa !37
  %105 = load ptr, ptr %8, align 8, !tbaa !19
  %106 = getelementptr inbounds nuw %struct.H5FA_hdr_t, ptr %105, i32 0, i32 7
  store ptr %104, ptr %106, align 8, !tbaa !39
  %107 = load ptr, ptr %3, align 8, !tbaa !11
  %108 = getelementptr inbounds nuw %struct.H5FA_t, ptr %107, i32 0, i32 0
  %109 = load ptr, ptr %108, align 8, !tbaa !35
  %110 = call i32 @H5FA__hdr_decr(ptr noundef %109)
  %111 = icmp slt i32 %110, 0
  br i1 %111, label %112, label %131

112:                                              ; preds = %101
  br label %113

113:                                              ; preds = %112
  br label %114

114:                                              ; preds = %113
  br label %115

115:                                              ; preds = %114
  %116 = load i64, ptr @H5E_FARRAY_g, align 8, !tbaa !17
  %117 = load i64, ptr @H5E_CANTDEC_g, align 8, !tbaa !17
  %118 = call i32 (ptr, ptr, i32, i64, i64, ptr, ...) @H5E_printf_stack(ptr noundef @.str.1, ptr noundef @__func__.H5FA_close, i32 noundef 574, i64 noundef %116, i64 noundef %117, ptr noundef @.str.14)
  br label %119

119:                                              ; preds = %115
  br label %120

120:                                              ; preds = %119
  store i8 1, ptr %7, align 1, !tbaa !13
  %121 = load i8, ptr %7, align 1, !tbaa !13, !range !15, !noundef !16
  %122 = trunc i8 %121 to i1
  %123 = zext i1 %122 to i8
  store i8 %123, ptr %7, align 1, !tbaa !13
  br label %124

124:                                              ; preds = %120
  br label %125

125:                                              ; preds = %124
  br label %126

126:                                              ; preds = %125
  store i32 -1, ptr %6, align 4, !tbaa !38
  store i32 10, ptr %9, align 4
  br label %155

127:                                              ; No predecessors!
  br label %128

128:                                              ; preds = %127
  br label %129

129:                                              ; preds = %128
  br label %130

130:                                              ; preds = %129
  br label %131

131:                                              ; preds = %130, %101
  %132 = load ptr, ptr %8, align 8, !tbaa !19
  %133 = call i32 @H5FA__hdr_delete(ptr noundef %132)
  %134 = icmp slt i32 %133, 0
  br i1 %134, label %135, label %154

135:                                              ; preds = %131
  br label %136

136:                                              ; preds = %135
  br label %137

137:                                              ; preds = %136
  br label %138

138:                                              ; preds = %137
  %139 = load i64, ptr @H5E_FARRAY_g, align 8, !tbaa !17
  %140 = load i64, ptr @H5E_CANTDELETE_g, align 8, !tbaa !17
  %141 = call i32 (ptr, ptr, i32, i64, i64, ptr, ...) @H5E_printf_stack(ptr noundef @.str.1, ptr noundef @__func__.H5FA_close, i32 noundef 578, i64 noundef %139, i64 noundef %140, ptr noundef @.str.15)
  br label %142

142:                                              ; preds = %138
  br label %143

143:                                              ; preds = %142
  store i8 1, ptr %7, align 1, !tbaa !13
  %144 = load i8, ptr %7, align 1, !tbaa !13, !range !15, !noundef !16
  %145 = trunc i8 %144 to i1
  %146 = zext i1 %145 to i8
  store i8 %146, ptr %7, align 1, !tbaa !13
  br label %147

147:                                              ; preds = %143
  br label %148

148:                                              ; preds = %147
  br label %149

149:                                              ; preds = %148
  store i32 -1, ptr %6, align 4, !tbaa !38
  store i32 10, ptr %9, align 4
  br label %155

150:                                              ; No predecessors!
  br label %151

151:                                              ; preds = %150
  br label %152

152:                                              ; preds = %151
  br label %153

153:                                              ; preds = %152
  br label %154

154:                                              ; preds = %153, %131
  store i32 0, ptr %9, align 4
  br label %155

155:                                              ; preds = %149, %126, %96, %154
  call void @llvm.lifetime.end.p0(i64 8, ptr %8) #6
  %156 = load i32, ptr %9, align 4
  switch i32 %156, label %191 [
    i32 0, label %157
    i32 10, label %188
  ]

157:                                              ; preds = %155
  br label %184

158:                                              ; preds = %72
  %159 = load ptr, ptr %3, align 8, !tbaa !11
  %160 = getelementptr inbounds nuw %struct.H5FA_t, ptr %159, i32 0, i32 0
  %161 = load ptr, ptr %160, align 8, !tbaa !35
  %162 = call i32 @H5FA__hdr_decr(ptr noundef %161)
  %163 = icmp slt i32 %162, 0
  br i1 %163, label %164, label %183

164:                                              ; preds = %158
  br label %165

165:                                              ; preds = %164
  br label %166

166:                                              ; preds = %165
  br label %167

167:                                              ; preds = %166
  %168 = load i64, ptr @H5E_FARRAY_g, align 8, !tbaa !17
  %169 = load i64, ptr @H5E_CANTDEC_g, align 8, !tbaa !17
  %170 = call i32 (ptr, ptr, i32, i64, i64, ptr, ...) @H5E_printf_stack(ptr noundef @.str.1, ptr noundef @__func__.H5FA_close, i32 noundef 587, i64 noundef %168, i64 noundef %169, ptr noundef @.str.14)
  br label %171

171:                                              ; preds = %167
  br label %172

172:                                              ; preds = %171
  store i8 1, ptr %7, align 1, !tbaa !13
  %173 = load i8, ptr %7, align 1, !tbaa !13, !range !15, !noundef !16
  %174 = trunc i8 %173 to i1
  %175 = zext i1 %174 to i8
  store i8 %175, ptr %7, align 1, !tbaa !13
  br label %176

176:                                              ; preds = %172
  br label %177

177:                                              ; preds = %176
  br label %178

178:                                              ; preds = %177
  store i32 -1, ptr %6, align 4, !tbaa !38
  br label %188

179:                                              ; No predecessors!
  br label %180

180:                                              ; preds = %179
  br label %181

181:                                              ; preds = %180
  br label %182

182:                                              ; preds = %181
  br label %183

183:                                              ; preds = %182, %158
  br label %184

184:                                              ; preds = %183, %157
  br label %185

185:                                              ; preds = %184, %40
  %186 = load ptr, ptr %3, align 8, !tbaa !11
  %187 = call ptr @H5FL_reg_free(ptr noundef @H5_H5FA_t_reg_free_list, ptr noundef %186)
  store ptr %187, ptr %3, align 8, !tbaa !11
  br label %188

188:                                              ; preds = %185, %155, %178
  br label %189

189:                                              ; preds = %188, %32
  %190 = load i32, ptr %6, align 4, !tbaa !38
  store i32 %190, ptr %2, align 4
  store i32 1, ptr %9, align 4
  br label %191

191:                                              ; preds = %189, %155
  call void @llvm.lifetime.end.p0(i64 1, ptr %7) #6
  call void @llvm.lifetime.end.p0(i64 4, ptr %6) #6
  call void @llvm.lifetime.end.p0(i64 8, ptr %5) #6
  call void @llvm.lifetime.end.p0(i64 1, ptr %4) #6
  %192 = load i32, ptr %2, align 4
  ret i32 %192
}