; Function Attrs: nounwind uwtable
define range(i32 -1, 1) i32 @H5FA_close(ptr noundef %0) local_unnamed_addr #0 {
  %2 = load i8, ptr @H5FA_init_g, align 1, !tbaa !3, !range !7, !noundef !8
  %3 = trunc nuw i8 %2 to i1
  %4 = load i8, ptr @H5_libterm_g, align 1, !range !7
  %5 = trunc nuw i8 %4 to i1
  %6 = select i1 %3, i1 true, i1 %5
  br i1 %6, label %7, label %.thread, !prof !9

.thread:                                          ; preds = %1
  store i8 1, ptr @H5FA_init_g, align 1, !tbaa !3
  br label %10

7:                                                ; preds = %1
  %8 = xor i1 %5, true
  %9 = select i1 %3, i1 true, i1 %8
  br i1 %9, label %10, label %.thread31, !prof !10

10:                                               ; preds = %.thread, %7
  %11 = load ptr, ptr %0, align 8, !tbaa !29
  %.not = icmp eq ptr %11, null
  br i1 %.not, label %55, label %12

12:                                               ; preds = %10
  %13 = tail call i64 @H5FA__hdr_fuse_decr(ptr noundef nonnull %11) #5
  %14 = icmp eq i64 %13, 0
  %.pre = load ptr, ptr %0, align 8, !tbaa !29
  br i1 %14, label %15, label %48

15:                                               ; preds = %12
  %16 = getelementptr inbounds nuw i8, ptr %0, i64 8
  %17 = load ptr, ptr %16, align 8, !tbaa !32
  %18 = getelementptr inbounds nuw i8, ptr %.pre, i64 328
  store ptr %17, ptr %18, align 8, !tbaa !33
  %19 = getelementptr inbounds nuw i8, ptr %.pre, i64 344
  %20 = load i8, ptr %19, align 8, !tbaa !13, !range !7, !noundef !8
  %21 = trunc nuw i8 %20 to i1
  br i1 %21, label %22, label %48

22:                                               ; preds = %15
  %23 = getelementptr inbounds nuw i8, ptr %.pre, i64 312
  %24 = load i64, ptr %23, align 8, !tbaa !34
  %25 = tail call ptr @H5FA__hdr_protect(ptr noundef %17, i64 noundef %24, ptr noundef null, i32 noundef 0) #5
  %26 = icmp eq ptr %25, null
  br i1 %26, label %27, label %31

27:                                               ; preds = %22
  %28 = load i64, ptr @H5E_FARRAY_g, align 8, !tbaa !11
  %29 = load i64, ptr @H5E_CANTLOAD_g, align 8, !tbaa !11
  %30 = tail call i32 (ptr, ptr, i32, i64, i64, ptr, ...) @H5E_printf_stack(ptr noundef nonnull @.str.1, ptr noundef nonnull @__func__.H5FA_close, i32 noundef 563, i64 noundef %28, i64 noundef %29, ptr noundef nonnull @.str.13) #5
  br label %.thread31

31:                                               ; preds = %22
  %32 = load ptr, ptr %16, align 8, !tbaa !32
  %33 = getelementptr inbounds nuw i8, ptr %25, i64 328
  store ptr %32, ptr %33, align 8, !tbaa !33
  %34 = load ptr, ptr %0, align 8, !tbaa !29
  %35 = tail call i32 @H5FA__hdr_decr(ptr noundef %34) #5
  %36 = icmp slt i32 %35, 0
  br i1 %36, label %37, label %41

37:                                               ; preds = %31
  %38 = load i64, ptr @H5E_FARRAY_g, align 8, !tbaa !11
  %39 = load i64, ptr @H5E_CANTDEC_g, align 8, !tbaa !11
  %40 = tail call i32 (ptr, ptr, i32, i64, i64, ptr, ...) @H5E_printf_stack(ptr noundef nonnull @.str.1, ptr noundef nonnull @__func__.H5FA_close, i32 noundef 574, i64 noundef %38, i64 noundef %39, ptr noundef nonnull @.str.14) #5
  br label %.thread31

41:                                               ; preds = %31
  %42 = tail call i32 @H5FA__hdr_delete(ptr noundef nonnull %25) #5
  %43 = icmp slt i32 %42, 0
  br i1 %43, label %44, label %55

44:                                               ; preds = %41
  %45 = load i64, ptr @H5E_FARRAY_g, align 8, !tbaa !11
  %46 = load i64, ptr @H5E_CANTDELETE_g, align 8, !tbaa !11
  %47 = tail call i32 (ptr, ptr, i32, i64, i64, ptr, ...) @H5E_printf_stack(ptr noundef nonnull @.str.1, ptr noundef nonnull @__func__.H5FA_close, i32 noundef 578, i64 noundef %45, i64 noundef %46, ptr noundef nonnull @.str.15) #5
  br label %.thread31

48:                                               ; preds = %15, %12
  %49 = tail call i32 @H5FA__hdr_decr(ptr noundef %.pre) #5
  %50 = icmp slt i32 %49, 0
  br i1 %50, label %51, label %55

51:                                               ; preds = %48
  %52 = load i64, ptr @H5E_FARRAY_g, align 8, !tbaa !11
  %53 = load i64, ptr @H5E_CANTDEC_g, align 8, !tbaa !11
  %54 = tail call i32 (ptr, ptr, i32, i64, i64, ptr, ...) @H5E_printf_stack(ptr noundef nonnull @.str.1, ptr noundef nonnull @__func__.H5FA_close, i32 noundef 587, i64 noundef %52, i64 noundef %53, ptr noundef nonnull @.str.14) #5
  br label %.thread31

55:                                               ; preds = %41, %48, %10
  %56 = tail call ptr @H5FL_reg_free(ptr noundef nonnull @H5_H5FA_t_reg_free_list, ptr noundef nonnull %0) #5
  br label %.thread31

.thread31:                                        ; preds = %44, %37, %27, %7, %55, %51
  %.021 = phi i32 [ 0, %55 ], [ -1, %51 ], [ 0, %7 ], [ -1, %27 ], [ -1, %37 ], [ -1, %44 ]
  ret i32 %.021
}